target datalayout = "e-m:e-p270:32:32-p271:32:32-p272:64:64-i64:64-i128:128-f80:128-n8:16:32:64-S128"
target triple = "x86_64-pc-linux-gnu"

@hf_ac_if_mu_unitid = internal global i32 0, align 4
@hf_ac_if_mu_nrinpins = internal global i32 0, align 4
@hf_ac_if_mu_sourceid = internal global i32 0, align 4
@hf_ac_if_mu_nrchannels = internal global i32 0, align 4
@hf_ac_if_mu_channelconfig = internal global i32 0, align 4
@hf_ac_if_mu_channelnames = internal global i32 0, align 4
@hf_ac_if_mu_controls = internal global i32 0, align 4
@hf_ac_if_mu_imixer = internal global i32 0, align 4
@ett_ac_if_mu_channelconfig = internal global i32 0, align 4

; Function Attrs: null_pointer_is_valid sspstrong uwtable
define internal i32 @dissect_ac_if_mixed_unit(ptr noundef %0, i32 noundef %1, ptr noundef %2, ptr noundef %3, ptr noundef %4) #1 {
  %6 = alloca ptr, align 8
  %7 = alloca i32, align 4
  %8 = alloca ptr, align 8
  %9 = alloca ptr, align 8
  %10 = alloca ptr, align 8
  %11 = alloca i32, align 4
  %12 = alloca i8, align 1
  store ptr %0, ptr %6, align 8
  store i32 %1, ptr %7, align 4
  store ptr %2, ptr %8, align 8
  store ptr %3, ptr %9, align 8
  store ptr %4, ptr %10, align 8
  call void @llvm.lifetime.start.p0(i64 4, ptr %11) #11
  call void @llvm.lifetime.start.p0(i64 1, ptr %12) #11
  %13 = load i32, ptr %7, align 4
  store i32 %13, ptr %11, align 4
  %14 = load ptr, ptr %9, align 8
  %15 = load i32, ptr @hf_ac_if_mu_unitid, align 4
  %16 = load ptr, ptr %6, align 8
  %17 = load i32, ptr %7, align 4
  %18 = call ptr @proto_tree_add_item(ptr noundef %14, i32 noundef %15, ptr noundef %16, i32 noundef %17, i32 noundef 1, i32 noundef -2147483648)
  %19 = load i32, ptr %7, align 4
  %20 = add i32 %19, 1
  store i32 %20, ptr %7, align 4
  %21 = load ptr, ptr %9, align 8
  %22 = load i32, ptr @hf_ac_if_mu_nrinpins, align 4
  %23 = load ptr, ptr %6, align 8
  %24 = load i32, ptr %7, align 4
  %25 = call ptr @proto_tree_add_item(ptr noundef %21, i32 noundef %22, ptr noundef %23, i32 noundef %24, i32 noundef 1, i32 noundef -2147483648)
  %26 = load ptr, ptr %6, align 8
  %27 = load i32, ptr %7, align 4
  %28 = call zeroext i8 @tvb_get_uint8(ptr noundef %26, i32 noundef %27)
  store i8 %28, ptr %12, align 1
  %29 = load i32, ptr %7, align 4
  %30 = add i32 %29, 1
  store i32 %30, ptr %7, align 4
  br label %31

31:                                               ; preds = %34, %5
  %32 = load i8, ptr %12, align 1
  %33 = icmp ne i8 %32, 0
  br i1 %33, label %34, label %44

34:                                               ; preds = %31
  %35 = load ptr, ptr %9, align 8
  %36 = load i32, ptr @hf_ac_if_mu_sourceid, align 4
  %37 = load ptr, ptr %6, align 8
  %38 = load i32, ptr %7, align 4
  %39 = call ptr @proto_tree_add_item(ptr noundef %35, i32 noundef %36, ptr noundef %37, i32 noundef %38, i32 noundef 1, i32 noundef -2147483648)
  %40 = load i8, ptr %12, align 1
  %41 = add i8 %40, -1
  store i8 %41, ptr %12, align 1
  %42 = load i32, ptr %7, align 4
  %43 = add i32 %42, 1
  store i32 %43, ptr %7, align 4
  br label %31, !llvm.loop !12

44:                                               ; preds = %31
  %45 = load ptr, ptr %9, align 8
  %46 = load i32, ptr @hf_ac_if_mu_nrchannels, align 4
  %47 = load ptr, ptr %6, align 8
  %48 = load i32, ptr %7, align 4
  %49 = call ptr @proto_tree_add_item(ptr noundef %45, i32 noundef %46, ptr noundef %47, i32 noundef %48, i32 noundef 1, i32 noundef -2147483648)
  %50 = load i32, ptr %7, align 4
  %51 = add i32 %50, 1
  store i32 %51, ptr %7, align 4
  %52 = load ptr, ptr %9, align 8
  %53 = load ptr, ptr %6, align 8
  %54 = load i32, ptr %7, align 4
  %55 = load i32, ptr @hf_ac_if_mu_channelconfig, align 4
  %56 = load i32, ptr @ett_ac_if_mu_channelconfig, align 4
  %57 = call ptr @proto_tree_add_bitmask(ptr noundef %52, ptr noundef %53, i32 noundef %54, i32 noundef %55, i32 noundef %56, ptr noundef @dissect_ac_if_mixed_unit.mu_channelconfig, i32 noundef -2147483648)
  %58 = load i32, ptr %7, align 4
  %59 = add i32 %58, 2
  store i32 %59, ptr %7, align 4
  %60 = load ptr, ptr %9, align 8
  %61 = load i32, ptr @hf_ac_if_mu_channelnames, align 4
  %62 = load ptr, ptr %6, align 8
  %63 = load i32, ptr %7, align 4
  %64 = call ptr @proto_tree_add_item(ptr noundef %60, i32 noundef %61, ptr noundef %62, i32 noundef %63, i32 noundef 1, i32 noundef -2147483648)
  %65 = load i32, ptr %7, align 4
  %66 = add i32 %65, 1
  store i32 %66, ptr %7, align 4
  %67 = load ptr, ptr %9, align 8
  %68 = load i32, ptr @hf_ac_if_mu_controls, align 4
  %69 = load ptr, ptr %6, align 8
  %70 = load i32, ptr %7, align 4
  %71 = call ptr @proto_tree_add_item(ptr noundef %67, i32 noundef %68, ptr noundef %69, i32 noundef %70, i32 noundef 1, i32 noundef -2147483648)
  %72 = load i32, ptr %7, align 4
  %73 = add i32 %72, 1
  store i32 %73, ptr %7, align 4
  %74 = load ptr, ptr %9, align 8
  %75 = load i32, ptr @hf_ac_if_mu_imixer, align 4
  %76 = load ptr, ptr %6, align 8
  %77 = load i32, ptr %7, align 4
  %78 = call ptr @proto_tree_add_item(ptr noundef %74, i32 noundef %75, ptr noundef %76, i32 noundef %77, i32 noundef 1, i32 noundef -2147483648)
  %79 = load i32, ptr %7, align 4
  %80 = add i32 %79, 1
  store i32 %80, ptr %7, align 4
  %81 = load i32, ptr %7, align 4
  %82 = load i32, ptr %11, align 4
  %83 = sub i32 %81, %82
  call void @llvm.lifetime.end.p0(i64 1, ptr %12) #11
  call void @llvm.lifetime.end.p0(i64 4, ptr %11) #11
  ret i32 %83
}