; Function Attrs: null_pointer_is_valid sspstrong uwtable
define internal fastcc range(i32 4, 3) i32 @dissect_ac_if_mixed_unit(ptr noundef %0, ptr noundef %1) unnamed_addr #1 {
  %3 = load i32, ptr @hf_ac_if_mu_unitid, align 4
  %4 = tail call ptr @proto_tree_add_item(ptr noundef %1, i32 noundef %3, ptr noundef %0, i32 noundef 3, i32 noundef 1, i32 noundef -2147483648)
  %5 = load i32, ptr @hf_ac_if_mu_nrinpins, align 4
  %6 = tail call ptr @proto_tree_add_item(ptr noundef %1, i32 noundef %5, ptr noundef %0, i32 noundef 4, i32 noundef 1, i32 noundef -2147483648)
  %7 = tail call zeroext i8 @tvb_get_uint8(ptr noundef %0, i32 noundef 4)
  %.not1 = icmp eq i8 %7, 0
  br i1 %.not1, label %._crit_edge, label %.lr.ph

.lr.ph:                                           ; preds = %2, %.lr.ph
  %.03 = phi i8 [ %10, %.lr.ph ], [ %7, %2 ]
  %.0382 = phi i32 [ %11, %.lr.ph ], [ 5, %2 ]
  %8 = load i32, ptr @hf_ac_if_mu_sourceid, align 4
  %9 = tail call ptr @proto_tree_add_item(ptr noundef %1, i32 noundef %8, ptr noundef %0, i32 noundef %.0382, i32 noundef 1, i32 noundef -2147483648)
  %10 = add i8 %.03, -1
  %11 = add nuw nsw i32 %.0382, 1
  %.not = icmp eq i8 %10, 0
  br i1 %.not, label %._crit_edge, label %.lr.ph, !llvm.loop !11

._crit_edge:                                      ; preds = %.lr.ph, %2
  %.038.lcssa = phi i32 [ 5, %2 ], [ %11, %.lr.ph ]
  %12 = load i32, ptr @hf_ac_if_mu_nrchannels, align 4
  %13 = tail call ptr @proto_tree_add_item(ptr noundef %1, i32 noundef %12, ptr noundef %0, i32 noundef %.038.lcssa, i32 noundef 1, i32 noundef -2147483648)
  %14 = add i32 %.038.lcssa, 1
  %15 = load i32, ptr @hf_ac_if_mu_channelconfig, align 4
  %16 = load i32, ptr @ett_ac_if_mu_channelconfig, align 4
  %17 = tail call ptr @proto_tree_add_bitmask(ptr noundef %1, ptr noundef %0, i32 noundef %14, i32 noundef %15, i32 noundef %16, ptr noundef nonnull @dissect_ac_if_mixed_unit.mu_channelconfig, i32 noundef -2147483648)
  %18 = add i32 %.038.lcssa, 3
  %19 = load i32, ptr @hf_ac_if_mu_channelnames, align 4
  %20 = tail call ptr @proto_tree_add_item(ptr noundef %1, i32 noundef %19, ptr noundef %0, i32 noundef %18, i32 noundef 1, i32 noundef -2147483648)
  %21 = add i32 %.038.lcssa, 4
  %22 = load i32, ptr @hf_ac_if_mu_controls, align 4
  %23 = tail call ptr @proto_tree_add_item(ptr noundef %1, i32 noundef %22, ptr noundef %0, i32 noundef %21, i32 noundef 1, i32 noundef -2147483648)
  %24 = add i32 %.038.lcssa, 5
  %25 = load i32, ptr @hf_ac_if_mu_imixer, align 4
  %26 = tail call ptr @proto_tree_add_item(ptr noundef %1, i32 noundef %25, ptr noundef %0, i32 noundef %24, i32 noundef 1, i32 noundef -2147483648)
  ret i32 %18
}